target datalayout = "e-m:e-p270:32:32-p271:32:32-p272:64:64-i64:64-i128:128-f80:128-n8:16:32:64-S128"
target triple = "x86_64-unknown-linux-gnu"

%"class.facebook::velox::WriteFile" = type { ptr }
%"class.facebook::velox::LocalWriteFile" = type <{ %"class.facebook::velox::WriteFile", ptr, i64, i8, [7 x i8] }>

; Function Attrs: mustprogress uwtable
define void @_ZN8facebook5velox14LocalWriteFile5closeEv(ptr noundef nonnull align 8 dereferenceable(32) %this) unnamed_addr #0 align 2 {
entry:
  %this.addr = alloca ptr, align 8
  %ret = alloca i32, align 4
  store ptr %this, ptr %this.addr, align 8
  %this1 = load ptr, ptr %this.addr, align 8
  %closed_ = getelementptr inbounds %"class.facebook::velox::LocalWriteFile", ptr %this1, i32 0, i32 3
  %0 = load i8, ptr %closed_, align 8
  %tobool = trunc i8 %0 to i1
  br i1 %tobool, label %if.end4, label %if.then

if.then:                                          ; preds = %entry
  %file_ = getelementptr inbounds %"class.facebook::velox::LocalWriteFile", ptr %this1, i32 0, i32 1
  %1 = load ptr, ptr %file_, align 8
  %call = call i32 @fclose(ptr noundef %1)
  store i32 %call, ptr %ret, align 4
  %2 = load i32, ptr %ret, align 4
  %cmp = icmp eq i32 %2, 0
  %lnot = xor i1 %cmp, true
  br i1 %lnot, label %if.then2, label %if.end

if.then2:                                         ; preds = %if.then
  call void @llvm.trap()
  br label %if.end

if.end:                                           ; preds = %if.then2, %if.then
  %closed_3 = getelementptr inbounds %"class.facebook::velox::LocalWriteFile", ptr %this1, i32 0, i32 3
  store i8 1, ptr %closed_3, align 8
  br label %if.end4

if.end4:                                          ; preds = %if.end, %entry
  ret void
}