; Function Attrs: mustprogress nounwind uwtable
define void @_ZN8facebook5velox14LocalWriteFile5closeEv(ptr nocapture noundef nonnull align 8 dereferenceable(32) %this) unnamed_addr #6 align 2 {
entry:
  %closed_ = getelementptr inbounds i8, ptr %this, i64 24
  %0 = load i8, ptr %closed_, align 8
  %1 = and i8 %0, 1
  %tobool.not = icmp eq i8 %1, 0
  br i1 %tobool.not, label %if.then, label %if.end4

if.then:                                          ; preds = %entry
  %file_ = getelementptr inbounds i8, ptr %this, i64 8
  %2 = load ptr, ptr %file_, align 8
  %call = tail call i32 @fclose(ptr noundef %2)
  %cmp.not = icmp eq i32 %call, 0
  br i1 %cmp.not, label %if.end, label %if.then2

if.then2:                                         ; preds = %if.then
  tail call void @llvm.trap()
  unreachable

if.end:                                           ; preds = %if.then
  store i8 1, ptr %closed_, align 8
  br label %if.end4

if.end4:                                          ; preds = %if.end, %entry
  ret void
}